#include <math.h>
#include <stdio.h>
#include <stdlib.h>
#include <string.h>

main()
{
    char str[256];
    char sub[256];
    char re[256];
    scanf("%s",str);
    scanf("%s",sub);
    scanf("%s",re);
    int i,j,k,p;
    for(i=0;str[i]!='\0';i++)
    {
        if(str[i]==sub[0])
        {
            k=i;
            for(j=0;sub[j]!='\0';j++)
            {
                if(str[i]==sub[j])
                i++;
                else
                break;
            }
            i--;
            if(sub[j]!='\0')
               i=k;
            else
                break;
        }
    }
    if(str[i]=='\0')
        printf("%s",str);
    else
    {
        for(p=0;p<k;p++)
           printf("%c",str[p]);
        printf("%s",re);
        for(p=i+1;str[p]!='\0';p++)
            printf("%c",str[p]);
    }
}
